
./build/k01_paging:     file format elf32-i386


Disassembly of section .text:

00100000 <multiboot_header>:
  100000:	02 b0 ad 1b 00 00    	add    0x1bad(%eax),%dh
  100006:	00 00                	add    %al,(%eax)
  100008:	fe 4f 52             	decb   0x52(%edi)
  10000b:	e4                 	in     $0xbc,%al

0010000c <start>:
  10000c:	bc 00 10 11 00       	mov    $0x111000,%esp
  100011:	e9 0a 03 00 00       	jmp    100320 <main>

00100016 <page_fault_entry>:
  100016:	60                   	pusha
  100017:	54                   	push   %esp
  100018:	e8 83 02 00 00       	call   1002a0 <page_fault_handler>
  10001d:	83 c4 04             	add    $0x4,%esp
  100020:	61                   	popa
  100021:	83 c4 04             	add    $0x4,%esp
  100024:	cf                   	iret
  100025:	66 90                	xchg   %ax,%ax
  100027:	66 90                	xchg   %ax,%ax
  100029:	66 90                	xchg   %ax,%ax
  10002b:	66 90                	xchg   %ax,%ax
  10002d:	66 90                	xchg   %ax,%ax
  10002f:	66 90                	xchg   %ax,%ax
  100031:	66 90                	xchg   %ax,%ax
  100033:	66 90                	xchg   %ax,%ax
  100035:	66 90                	xchg   %ax,%ax
  100037:	66 90                	xchg   %ax,%ax
  100039:	66 90                	xchg   %ax,%ax
  10003b:	66 90                	xchg   %ax,%ax
  10003d:	66 90                	xchg   %ax,%ax
  10003f:	90                   	nop

00100040 <b>:
  100040:	57                   	push   %edi
  100041:	56                   	push   %esi
  100042:	53                   	push   %ebx
  100043:	83 ec 04             	sub    $0x4,%esp
  100046:	8b 5c 24 14          	mov    0x14(%esp),%ebx
  10004a:	85 db                	test   %ebx,%ebx
  10004c:	7e 32                	jle    100080 <b+0x40>
  10004e:	c7 04 24 01 00 00 00 	movl   $0x1,(%esp)
  100055:	8d 74 24 18          	lea    0x18(%esp),%esi
  100059:	31 c0                	xor    %eax,%eax
  10005b:	31 d2                	xor    %edx,%edx
  10005d:	8d 76 00             	lea    0x0(%esi),%esi
  100060:	8b 0c 86             	mov    (%esi,%eax,4),%ecx
  100063:	8b 3c 24             	mov    (%esp),%edi
  100066:	83 c0 01             	add    $0x1,%eax
  100069:	d3 e7                	shl    %cl,%edi
  10006b:	09 fa                	or     %edi,%edx
  10006d:	39 c3                	cmp    %eax,%ebx
  10006f:	75 ef                	jne    100060 <b+0x20>
  100071:	83 c4 04             	add    $0x4,%esp
  100074:	89 d0                	mov    %edx,%eax
  100076:	5b                   	pop    %ebx
  100077:	5e                   	pop    %esi
  100078:	5f                   	pop    %edi
  100079:	c3                   	ret
  10007a:	8d b6 00 00 00 00    	lea    0x0(%esi),%esi
  100080:	83 c4 04             	add    $0x4,%esp
  100083:	31 d2                	xor    %edx,%edx
  100085:	5b                   	pop    %ebx
  100086:	89 d0                	mov    %edx,%eax
  100088:	5e                   	pop    %esi
  100089:	5f                   	pop    %edi
  10008a:	c3                   	ret
  10008b:	66 90                	xchg   %ax,%ax
  10008d:	66 90                	xchg   %ax,%ax
  10008f:	66 90                	xchg   %ax,%ax
  100091:	66 90                	xchg   %ax,%ax
  100093:	66 90                	xchg   %ax,%ax
  100095:	66 90                	xchg   %ax,%ax
  100097:	66 90                	xchg   %ax,%ax
  100099:	66 90                	xchg   %ax,%ax
  10009b:	66 90                	xchg   %ax,%ax
  10009d:	66 90                	xchg   %ax,%ax
  10009f:	90                   	nop

001000a0 <invlpg>:
  1000a0:	8b 44 24 04          	mov    0x4(%esp),%eax
  1000a4:	0f 01 38             	invlpg (%eax)
  1000a7:	c3                   	ret
  1000a8:	2e 8d b4 26 00 00 00 	lea    %cs:0x0(%esi,%eiz,1),%esi
  1000af:	00 

001000b0 <set_cr4>:
  1000b0:	8b 44 24 04          	mov    0x4(%esp),%eax
  1000b4:	0f 22 e0             	mov    %eax,%cr4
  1000b7:	c3                   	ret
  1000b8:	2e 8d b4 26 00 00 00 	lea    %cs:0x0(%esi,%eiz,1),%esi
  1000bf:	00 

001000c0 <get_cr4>:
  1000c0:	0f 20 e0             	mov    %cr4,%eax
  1000c3:	c3                   	ret
  1000c4:	2e 8d b4 26 00 00 00 	lea    %cs:0x0(%esi,%eiz,1),%esi
  1000cb:	00 
  1000cc:	8d 74 26 00          	lea    0x0(%esi,%eiz,1),%esi

001000d0 <set_cr3>:
  1000d0:	8b 44 24 04          	mov    0x4(%esp),%eax
  1000d4:	0f 22 d8             	mov    %eax,%cr3
  1000d7:	c3                   	ret
  1000d8:	2e 8d b4 26 00 00 00 	lea    %cs:0x0(%esi,%eiz,1),%esi
  1000df:	00 

001000e0 <get_cr3>:
  1000e0:	0f 20 d8             	mov    %cr3,%eax
  1000e3:	c3                   	ret
  1000e4:	2e 8d b4 26 00 00 00 	lea    %cs:0x0(%esi,%eiz,1),%esi
  1000eb:	00 
  1000ec:	8d 74 26 00          	lea    0x0(%esi,%eiz,1),%esi

001000f0 <get_cr2>:
  1000f0:	0f 20 d0             	mov    %cr2,%eax
  1000f3:	c3                   	ret
  1000f4:	2e 8d b4 26 00 00 00 	lea    %cs:0x0(%esi,%eiz,1),%esi
  1000fb:	00 
  1000fc:	8d 74 26 00          	lea    0x0(%esi,%eiz,1),%esi

00100100 <set_cr0>:
  100100:	8b 44 24 04          	mov    0x4(%esp),%eax
  100104:	0f 22 c0             	mov    %eax,%cr0
  100107:	c3                   	ret
  100108:	2e 8d b4 26 00 00 00 	lea    %cs:0x0(%esi,%eiz,1),%esi
  10010f:	00 

00100110 <get_cr0>:
  100110:	0f 20 c0             	mov    %cr0,%eax
  100113:	c3                   	ret
  100114:	2e 8d b4 26 00 00 00 	lea    %cs:0x0(%esi,%eiz,1),%esi
  10011b:	00 
  10011c:	8d 74 26 00          	lea    0x0(%esi,%eiz,1),%esi

00100120 <outb>:
  100120:	0f b6 44 24 04       	movzbl 0x4(%esp),%eax
  100125:	0f b7 54 24 08       	movzwl 0x8(%esp),%edx
  10012a:	ee                   	out    %al,(%dx)
  10012b:	c3                   	ret
  10012c:	8d 74 26 00          	lea    0x0(%esi,%eiz,1),%esi

00100130 <inb>:
  100130:	8b 54 24 04          	mov    0x4(%esp),%edx
  100134:	ec                   	in     (%dx),%al
  100135:	c3                   	ret
  100136:	2e 8d b4 26 00 00 00 	lea    %cs:0x0(%esi,%eiz,1),%esi
  10013d:	00 
  10013e:	66 90                	xchg   %ax,%ax

00100140 <putc>:
  100140:	0f b6 4c 24 04       	movzbl 0x4(%esp),%ecx
  100145:	ba fd 03 00 00       	mov    $0x3fd,%edx
  10014a:	8d b6 00 00 00 00    	lea    0x0(%esi),%esi
  100150:	ec                   	in     (%dx),%al
  100151:	a8 20                	test   $0x20,%al
  100153:	74 fb                	je     100150 <putc+0x10>
  100155:	ba f8 03 00 00       	mov    $0x3f8,%edx
  10015a:	89 c8                	mov    %ecx,%eax
  10015c:	ee                   	out    %al,(%dx)
  10015d:	c3                   	ret
  10015e:	66 90                	xchg   %ax,%ax

00100160 <puts>:
  100160:	57                   	push   %edi
  100161:	56                   	push   %esi
  100162:	53                   	push   %ebx
  100163:	8b 74 24 10          	mov    0x10(%esp),%esi
  100167:	0f b6 1e             	movzbl (%esi),%ebx
  10016a:	84 db                	test   %bl,%bl
  10016c:	74 1f                	je     10018d <puts+0x2d>
  10016e:	66 90                	xchg   %ax,%ax
  100170:	ba fd 03 00 00       	mov    $0x3fd,%edx
  100175:	ec                   	in     (%dx),%al
  100176:	a8 20                	test   $0x20,%al
  100178:	74 f6                	je     100170 <puts+0x10>
  10017a:	89 d8                	mov    %ebx,%eax
  10017c:	ba f8 03 00 00       	mov    $0x3f8,%edx
  100181:	ee                   	out    %al,(%dx)
  100182:	0f b6 5e 01          	movzbl 0x1(%esi),%ebx
  100186:	83 c6 01             	add    $0x1,%esi
  100189:	84 db                	test   %bl,%bl
  10018b:	75 e3                	jne    100170 <puts+0x10>
  10018d:	5b                   	pop    %ebx
  10018e:	5e                   	pop    %esi
  10018f:	5f                   	pop    %edi
  100190:	c3                   	ret
  100191:	2e 8d b4 26 00 00 00 	lea    %cs:0x0(%esi,%eiz,1),%esi
  100198:	00 
  100199:	8d b4 26 00 00 00 00 	lea    0x0(%esi,%eiz,1),%esi

001001a0 <put_hex>:
  1001a0:	e8 65 02 00 00       	call   10040a <__x86.get_pc_thunk.dx>
  1001a5:	81 c2 4b 07 00 00    	add    $0x74b,%edx
  1001ab:	57                   	push   %edi
  1001ac:	56                   	push   %esi
  1001ad:	53                   	push   %ebx
  1001ae:	83 ec 10             	sub    $0x10,%esp
  1001b1:	8b 44 24 20          	mov    0x20(%esp),%eax
  1001b5:	c6 44 24 0f 00       	movb   $0x0,0xf(%esp)
  1001ba:	85 c0                	test   %eax,%eax
  1001bc:	0f 84 c5 00 00 00    	je     100287 <put_hex+0xe7>
  1001c2:	8d 5c 24 0e          	lea    0xe(%esp),%ebx
  1001c6:	8d ba 93 fc ff ff    	lea    -0x36d(%edx),%edi
  1001cc:	89 d9                	mov    %ebx,%ecx
  1001ce:	2e 8d b4 26 00 00 00 	lea    %cs:0x0(%esi,%eiz,1),%esi
  1001d5:	00 
  1001d6:	2e 8d b4 26 00 00 00 	lea    %cs:0x0(%esi,%eiz,1),%esi
  1001dd:	00 
  1001de:	66 90                	xchg   %ax,%ax
  1001e0:	89 c2                	mov    %eax,%edx
  1001e2:	83 e9 01             	sub    $0x1,%ecx
  1001e5:	83 e2 0f             	and    $0xf,%edx
  1001e8:	0f b6 34 17          	movzbl (%edi,%edx,1),%esi
  1001ec:	89 f2                	mov    %esi,%edx
  1001ee:	88 51 01             	mov    %dl,0x1(%ecx)
  1001f1:	c1 e8 04             	shr    $0x4,%eax
  1001f4:	75 ea                	jne    1001e0 <put_hex+0x40>
  1001f6:	ba fd 03 00 00       	mov    $0x3fd,%edx
  1001fb:	2e 8d 74 26 00       	lea    %cs:0x0(%esi,%eiz,1),%esi
  100200:	ec                   	in     (%dx),%al
  100201:	a8 20                	test   $0x20,%al
  100203:	74 fb                	je     100200 <put_hex+0x60>
  100205:	b8 30 00 00 00       	mov    $0x30,%eax
  10020a:	ba f8 03 00 00       	mov    $0x3f8,%edx
  10020f:	ee                   	out    %al,(%dx)
  100210:	ba fd 03 00 00       	mov    $0x3fd,%edx
  100215:	2e 8d b4 26 00 00 00 	lea    %cs:0x0(%esi,%eiz,1),%esi
  10021c:	00 
  10021d:	8d 76 00             	lea    0x0(%esi),%esi
  100220:	ec                   	in     (%dx),%al
  100221:	a8 20                	test   $0x20,%al
  100223:	74 fb                	je     100220 <put_hex+0x80>
  100225:	b8 78 00 00 00       	mov    $0x78,%eax
  10022a:	ba f8 03 00 00       	mov    $0x3f8,%edx
  10022f:	ee                   	out    %al,(%dx)
  100230:	39 d9                	cmp    %ebx,%ecx
  100232:	74 32                	je     100266 <put_hex+0xc6>
  100234:	89 f0                	mov    %esi,%eax
  100236:	84 c0                	test   %al,%al
  100238:	74 25                	je     10025f <put_hex+0xbf>
  10023a:	8d 59 01             	lea    0x1(%ecx),%ebx
  10023d:	8d 76 00             	lea    0x0(%esi),%esi
  100240:	ba fd 03 00 00       	mov    $0x3fd,%edx
  100245:	ec                   	in     (%dx),%al
  100246:	a8 20                	test   $0x20,%al
  100248:	74 f6                	je     100240 <put_hex+0xa0>
  10024a:	89 f0                	mov    %esi,%eax
  10024c:	ba f8 03 00 00       	mov    $0x3f8,%edx
  100251:	ee                   	out    %al,(%dx)
  100252:	0f b6 73 01          	movzbl 0x1(%ebx),%esi
  100256:	83 c3 01             	add    $0x1,%ebx
  100259:	89 f0                	mov    %esi,%eax
  10025b:	84 c0                	test   %al,%al
  10025d:	75 e1                	jne    100240 <put_hex+0xa0>
  10025f:	83 c4 10             	add    $0x10,%esp
  100262:	5b                   	pop    %ebx
  100263:	5e                   	pop    %esi
  100264:	5f                   	pop    %edi
  100265:	c3                   	ret
  100266:	ba fd 03 00 00       	mov    $0x3fd,%edx
  10026b:	2e 8d 74 26 00       	lea    %cs:0x0(%esi,%eiz,1),%esi
  100270:	ec                   	in     (%dx),%al
  100271:	a8 20                	test   $0x20,%al
  100273:	74 fb                	je     100270 <put_hex+0xd0>
  100275:	b8 30 00 00 00       	mov    $0x30,%eax
  10027a:	ba f8 03 00 00       	mov    $0x3f8,%edx
  10027f:	ee                   	out    %al,(%dx)
  100280:	83 c4 10             	add    $0x10,%esp
  100283:	5b                   	pop    %ebx
  100284:	5e                   	pop    %esi
  100285:	5f                   	pop    %edi
  100286:	c3                   	ret
  100287:	8d 5c 24 0e          	lea    0xe(%esp),%ebx
  10028b:	31 f6                	xor    %esi,%esi
  10028d:	89 d9                	mov    %ebx,%ecx
  10028f:	e9 62 ff ff ff       	jmp    1001f6 <put_hex+0x56>
  100294:	2e 8d b4 26 00 00 00 	lea    %cs:0x0(%esi,%eiz,1),%esi
  10029b:	00 
  10029c:	8d 74 26 00          	lea    0x0(%esi,%eiz,1),%esi

001002a0 <page_fault_handler>:
  1002a0:	e8 61 01 00 00       	call   100406 <__x86.get_pc_thunk.ax>
  1002a5:	05 4b 06 00 00       	add    $0x64b,%eax
  1002aa:	55                   	push   %ebp
  1002ab:	57                   	push   %edi
  1002ac:	56                   	push   %esi
  1002ad:	be 0a 00 00 00       	mov    $0xa,%esi
  1002b2:	53                   	push   %ebx
  1002b3:	8d a8 b0 fc ff ff    	lea    -0x350(%eax),%ebp
  1002b9:	8d 98 a4 fc ff ff    	lea    -0x35c(%eax),%ebx
  1002bf:	90                   	nop
  1002c0:	ba fd 03 00 00       	mov    $0x3fd,%edx
  1002c5:	ec                   	in     (%dx),%al
  1002c6:	a8 20                	test   $0x20,%al
  1002c8:	74 f6                	je     1002c0 <page_fault_handler+0x20>
  1002ca:	89 f0                	mov    %esi,%eax
  1002cc:	ba f8 03 00 00       	mov    $0x3f8,%edx
  1002d1:	ee                   	out    %al,(%dx)
  1002d2:	83 c3 01             	add    $0x1,%ebx
  1002d5:	0f b6 33             	movzbl (%ebx),%esi
  1002d8:	39 eb                	cmp    %ebp,%ebx
  1002da:	75 e4                	jne    1002c0 <page_fault_handler+0x20>
  1002dc:	eb fe                	jmp    1002dc <page_fault_handler+0x3c>
  1002de:	66 90                	xchg   %ax,%ax

001002e0 <init_idt>:
  1002e0:	e8 21 01 00 00       	call   100406 <__x86.get_pc_thunk.ax>
  1002e5:	05 0b 06 00 00       	add    $0x60b,%eax
  1002ea:	c7 80 82 17 01 00 08 	movl   $0x8f000008,0x11782(%eax)
  1002f1:	00 00 8f 
  1002f4:	c7 c2 16 00 10 00    	mov    $0x100016,%edx
  1002fa:	66 89 90 80 17 01 00 	mov    %dx,0x11780(%eax)
  100301:	c1 ea 10             	shr    $0x10,%edx
  100304:	66 89 90 86 17 01 00 	mov    %dx,0x11786(%eax)
  10030b:	0f 01 98 f8 ff ff ff 	lidtl  -0x8(%eax)
  100312:	c3                   	ret
  100313:	66 90                	xchg   %ax,%ax
  100315:	66 90                	xchg   %ax,%ax
  100317:	66 90                	xchg   %ax,%ax
  100319:	66 90                	xchg   %ax,%ax
  10031b:	66 90                	xchg   %ax,%ax
  10031d:	66 90                	xchg   %ax,%ax
  10031f:	90                   	nop

00100320 <main>:
  100320:	8d 4c 24 04          	lea    0x4(%esp),%ecx
  100324:	83 e4 f0             	and    $0xfffffff0,%esp
  100327:	ff 71 fc             	push   -0x4(%ecx)
  10032a:	55                   	push   %ebp
  10032b:	89 e5                	mov    %esp,%ebp
  10032d:	53                   	push   %ebx
  10032e:	e8 cf 00 00 00       	call   100402 <__x86.get_pc_thunk.bx>
  100333:	81 c3 bd 05 00 00    	add    $0x5bd,%ebx
  100339:	51                   	push   %ecx
  10033a:	83 ec 0c             	sub    $0xc,%esp
  10033d:	8d 83 20 fb ff ff    	lea    -0x4e0(%ebx),%eax
  100343:	50                   	push   %eax
  100344:	e8 17 fe ff ff       	call   100160 <puts>
  100349:	8d 83 58 fb ff ff    	lea    -0x4a8(%ebx),%eax
  10034f:	89 04 24             	mov    %eax,(%esp)
  100352:	e8 09 fe ff ff       	call   100160 <puts>
  100357:	8d 83 7c fb ff ff    	lea    -0x484(%ebx),%eax
  10035d:	89 04 24             	mov    %eax,(%esp)
  100360:	e8 fb fd ff ff       	call   100160 <puts>
  100365:	8d 83 b8 fb ff ff    	lea    -0x448(%ebx),%eax
  10036b:	89 04 24             	mov    %eax,(%esp)
  10036e:	e8 ed fd ff ff       	call   100160 <puts>
  100373:	6a 00                	push   $0x0
  100375:	6a 01                	push   $0x1
  100377:	6a 07                	push   $0x7
  100379:	6a 03                	push   $0x3
  10037b:	e8 c0 fc ff ff       	call   100040 <b>
  100380:	83 c4 14             	add    $0x14,%esp
  100383:	89 83 10 07 01 00    	mov    %eax,0x10710(%ebx)
  100389:	8d 83 e8 fb ff ff    	lea    -0x418(%ebx),%eax
  10038f:	50                   	push   %eax
  100390:	e8 cb fd ff ff       	call   100160 <puts>
  100395:	8d 83 10 07 01 00    	lea    0x10710(%ebx),%eax
  10039b:	89 04 24             	mov    %eax,(%esp)
  10039e:	e8 2d fd ff ff       	call   1000d0 <set_cr3>
  1003a3:	8d 83 18 fc ff ff    	lea    -0x3e8(%ebx),%eax
  1003a9:	89 04 24             	mov    %eax,(%esp)
  1003ac:	e8 af fd ff ff       	call   100160 <puts>
  1003b1:	e8 0a fd ff ff       	call   1000c0 <get_cr4>
  1003b6:	83 c8 10             	or     $0x10,%eax
  1003b9:	89 04 24             	mov    %eax,(%esp)
  1003bc:	e8 ef fc ff ff       	call   1000b0 <set_cr4>
  1003c1:	8d 83 5f fc ff ff    	lea    -0x3a1(%ebx),%eax
  1003c7:	89 04 24             	mov    %eax,(%esp)
  1003ca:	e8 91 fd ff ff       	call   100160 <puts>
  1003cf:	e8 3c fd ff ff       	call   100110 <get_cr0>
  1003d4:	0d 00 00 00 80       	or     $0x80000000,%eax
  1003d9:	89 04 24             	mov    %eax,(%esp)
  1003dc:	e8 1f fd ff ff       	call   100100 <set_cr0>
  1003e1:	8d 83 38 fc ff ff    	lea    -0x3c8(%ebx),%eax
  1003e7:	89 04 24             	mov    %eax,(%esp)
  1003ea:	e8 71 fd ff ff       	call   100160 <puts>
  1003ef:	8d 83 7a fc ff ff    	lea    -0x386(%ebx),%eax
  1003f5:	89 04 24             	mov    %eax,(%esp)
  1003f8:	e8 63 fd ff ff       	call   100160 <puts>
  1003fd:	83 c4 10             	add    $0x10,%esp
  100400:	eb fe                	jmp    100400 <main+0xe0>

00100402 <__x86.get_pc_thunk.bx>:
  100402:	8b 1c 24             	mov    (%esp),%ebx
  100405:	c3                   	ret

00100406 <__x86.get_pc_thunk.ax>:
  100406:	8b 04 24             	mov    (%esp),%eax
  100409:	c3                   	ret

0010040a <__x86.get_pc_thunk.dx>:
  10040a:	8b 14 24             	mov    (%esp),%edx
  10040d:	c3                   	ret
