
./build/k03_map:     file format elf32-i386


Disassembly of section .text:

00100000 <multiboot_header>:
  100000:	02 b0 ad 1b 00 00    	add    0x1bad(%eax),%dh
  100006:	00 00                	add    %al,(%eax)
  100008:	fe 4f 52             	decb   0x52(%edi)
  10000b:	e4                 	in     $0xbc,%al

0010000c <start>:
  10000c:	bc 00 10 11 00       	mov    $0x111000,%esp
  100011:	e9 aa 02 00 00       	jmp    1002c0 <main>

00100016 <page_fault_entry>:
  100016:	60                   	pusha
  100017:	54                   	push   %esp
  100018:	e8 23 02 00 00       	call   100240 <page_fault_handler>
  10001d:	83 c4 04             	add    $0x4,%esp
  100020:	61                   	popa
  100021:	83 c4 04             	add    $0x4,%esp
  100024:	cf                   	iret
  100025:	66 90                	xchg   %ax,%ax
  100027:	66 90                	xchg   %ax,%ax
  100029:	66 90                	xchg   %ax,%ax
  10002b:	66 90                	xchg   %ax,%ax
  10002d:	66 90                	xchg   %ax,%ax
  10002f:	66 90                	xchg   %ax,%ax
  100031:	66 90                	xchg   %ax,%ax
  100033:	66 90                	xchg   %ax,%ax
  100035:	66 90                	xchg   %ax,%ax
  100037:	66 90                	xchg   %ax,%ax
  100039:	66 90                	xchg   %ax,%ax
  10003b:	66 90                	xchg   %ax,%ax
  10003d:	66 90                	xchg   %ax,%ax
  10003f:	90                   	nop

00100040 <invlpg>:
  100040:	8b 44 24 04          	mov    0x4(%esp),%eax
  100044:	0f 01 38             	invlpg (%eax)
  100047:	c3                   	ret
  100048:	2e 8d b4 26 00 00 00 	lea    %cs:0x0(%esi,%eiz,1),%esi
  10004f:	00 

00100050 <set_cr4>:
  100050:	8b 44 24 04          	mov    0x4(%esp),%eax
  100054:	0f 22 e0             	mov    %eax,%cr4
  100057:	c3                   	ret
  100058:	2e 8d b4 26 00 00 00 	lea    %cs:0x0(%esi,%eiz,1),%esi
  10005f:	00 

00100060 <get_cr4>:
  100060:	0f 20 e0             	mov    %cr4,%eax
  100063:	c3                   	ret
  100064:	2e 8d b4 26 00 00 00 	lea    %cs:0x0(%esi,%eiz,1),%esi
  10006b:	00 
  10006c:	8d 74 26 00          	lea    0x0(%esi,%eiz,1),%esi

00100070 <set_cr3>:
  100070:	8b 44 24 04          	mov    0x4(%esp),%eax
  100074:	0f 22 d8             	mov    %eax,%cr3
  100077:	c3                   	ret
  100078:	2e 8d b4 26 00 00 00 	lea    %cs:0x0(%esi,%eiz,1),%esi
  10007f:	00 

00100080 <get_cr3>:
  100080:	0f 20 d8             	mov    %cr3,%eax
  100083:	c3                   	ret
  100084:	2e 8d b4 26 00 00 00 	lea    %cs:0x0(%esi,%eiz,1),%esi
  10008b:	00 
  10008c:	8d 74 26 00          	lea    0x0(%esi,%eiz,1),%esi

00100090 <get_cr2>:
  100090:	0f 20 d0             	mov    %cr2,%eax
  100093:	c3                   	ret
  100094:	2e 8d b4 26 00 00 00 	lea    %cs:0x0(%esi,%eiz,1),%esi
  10009b:	00 
  10009c:	8d 74 26 00          	lea    0x0(%esi,%eiz,1),%esi

001000a0 <set_cr0>:
  1000a0:	8b 44 24 04          	mov    0x4(%esp),%eax
  1000a4:	0f 22 c0             	mov    %eax,%cr0
  1000a7:	c3                   	ret
  1000a8:	2e 8d b4 26 00 00 00 	lea    %cs:0x0(%esi,%eiz,1),%esi
  1000af:	00 

001000b0 <get_cr0>:
  1000b0:	0f 20 c0             	mov    %cr0,%eax
  1000b3:	c3                   	ret
  1000b4:	2e 8d b4 26 00 00 00 	lea    %cs:0x0(%esi,%eiz,1),%esi
  1000bb:	00 
  1000bc:	8d 74 26 00          	lea    0x0(%esi,%eiz,1),%esi

001000c0 <outb>:
  1000c0:	0f b6 44 24 04       	movzbl 0x4(%esp),%eax
  1000c5:	0f b7 54 24 08       	movzwl 0x8(%esp),%edx
  1000ca:	ee                   	out    %al,(%dx)
  1000cb:	c3                   	ret
  1000cc:	8d 74 26 00          	lea    0x0(%esi,%eiz,1),%esi

001000d0 <inb>:
  1000d0:	8b 54 24 04          	mov    0x4(%esp),%edx
  1000d4:	ec                   	in     (%dx),%al
  1000d5:	c3                   	ret
  1000d6:	2e 8d b4 26 00 00 00 	lea    %cs:0x0(%esi,%eiz,1),%esi
  1000dd:	00 
  1000de:	66 90                	xchg   %ax,%ax

001000e0 <putc>:
  1000e0:	0f b6 4c 24 04       	movzbl 0x4(%esp),%ecx
  1000e5:	ba fd 03 00 00       	mov    $0x3fd,%edx
  1000ea:	8d b6 00 00 00 00    	lea    0x0(%esi),%esi
  1000f0:	ec                   	in     (%dx),%al
  1000f1:	a8 20                	test   $0x20,%al
  1000f3:	74 fb                	je     1000f0 <putc+0x10>
  1000f5:	ba f8 03 00 00       	mov    $0x3f8,%edx
  1000fa:	89 c8                	mov    %ecx,%eax
  1000fc:	ee                   	out    %al,(%dx)
  1000fd:	c3                   	ret
  1000fe:	66 90                	xchg   %ax,%ax

00100100 <puts>:
  100100:	57                   	push   %edi
  100101:	56                   	push   %esi
  100102:	53                   	push   %ebx
  100103:	8b 74 24 10          	mov    0x10(%esp),%esi
  100107:	0f b6 1e             	movzbl (%esi),%ebx
  10010a:	84 db                	test   %bl,%bl
  10010c:	74 1f                	je     10012d <puts+0x2d>
  10010e:	66 90                	xchg   %ax,%ax
  100110:	ba fd 03 00 00       	mov    $0x3fd,%edx
  100115:	ec                   	in     (%dx),%al
  100116:	a8 20                	test   $0x20,%al
  100118:	74 f6                	je     100110 <puts+0x10>
  10011a:	89 d8                	mov    %ebx,%eax
  10011c:	ba f8 03 00 00       	mov    $0x3f8,%edx
  100121:	ee                   	out    %al,(%dx)
  100122:	0f b6 5e 01          	movzbl 0x1(%esi),%ebx
  100126:	83 c6 01             	add    $0x1,%esi
  100129:	84 db                	test   %bl,%bl
  10012b:	75 e3                	jne    100110 <puts+0x10>
  10012d:	5b                   	pop    %ebx
  10012e:	5e                   	pop    %esi
  10012f:	5f                   	pop    %edi
  100130:	c3                   	ret
  100131:	2e 8d b4 26 00 00 00 	lea    %cs:0x0(%esi,%eiz,1),%esi
  100138:	00 
  100139:	8d b4 26 00 00 00 00 	lea    0x0(%esi,%eiz,1),%esi

00100140 <put_hex>:
  100140:	e8 bb 01 00 00       	call   100300 <__x86.get_pc_thunk.dx>
  100145:	81 c2 f7 04 00 00    	add    $0x4f7,%edx
  10014b:	57                   	push   %edi
  10014c:	56                   	push   %esi
  10014d:	53                   	push   %ebx
  10014e:	83 ec 10             	sub    $0x10,%esp
  100151:	8b 44 24 20          	mov    0x20(%esp),%eax
  100155:	c6 44 24 0f 00       	movb   $0x0,0xf(%esp)
  10015a:	85 c0                	test   %eax,%eax
  10015c:	0f 84 c5 00 00 00    	je     100227 <put_hex+0xe7>
  100162:	8d 5c 24 0e          	lea    0xe(%esp),%ebx
  100166:	8d ba d6 fc ff ff    	lea    -0x32a(%edx),%edi
  10016c:	89 d9                	mov    %ebx,%ecx
  10016e:	2e 8d b4 26 00 00 00 	lea    %cs:0x0(%esi,%eiz,1),%esi
  100175:	00 
  100176:	2e 8d b4 26 00 00 00 	lea    %cs:0x0(%esi,%eiz,1),%esi
  10017d:	00 
  10017e:	66 90                	xchg   %ax,%ax
  100180:	89 c2                	mov    %eax,%edx
  100182:	83 e9 01             	sub    $0x1,%ecx
  100185:	83 e2 0f             	and    $0xf,%edx
  100188:	0f b6 34 17          	movzbl (%edi,%edx,1),%esi
  10018c:	89 f2                	mov    %esi,%edx
  10018e:	88 51 01             	mov    %dl,0x1(%ecx)
  100191:	c1 e8 04             	shr    $0x4,%eax
  100194:	75 ea                	jne    100180 <put_hex+0x40>
  100196:	ba fd 03 00 00       	mov    $0x3fd,%edx
  10019b:	2e 8d 74 26 00       	lea    %cs:0x0(%esi,%eiz,1),%esi
  1001a0:	ec                   	in     (%dx),%al
  1001a1:	a8 20                	test   $0x20,%al
  1001a3:	74 fb                	je     1001a0 <put_hex+0x60>
  1001a5:	b8 30 00 00 00       	mov    $0x30,%eax
  1001aa:	ba f8 03 00 00       	mov    $0x3f8,%edx
  1001af:	ee                   	out    %al,(%dx)
  1001b0:	ba fd 03 00 00       	mov    $0x3fd,%edx
  1001b5:	2e 8d b4 26 00 00 00 	lea    %cs:0x0(%esi,%eiz,1),%esi
  1001bc:	00 
  1001bd:	8d 76 00             	lea    0x0(%esi),%esi
  1001c0:	ec                   	in     (%dx),%al
  1001c1:	a8 20                	test   $0x20,%al
  1001c3:	74 fb                	je     1001c0 <put_hex+0x80>
  1001c5:	b8 78 00 00 00       	mov    $0x78,%eax
  1001ca:	ba f8 03 00 00       	mov    $0x3f8,%edx
  1001cf:	ee                   	out    %al,(%dx)
  1001d0:	39 d9                	cmp    %ebx,%ecx
  1001d2:	74 32                	je     100206 <put_hex+0xc6>
  1001d4:	89 f0                	mov    %esi,%eax
  1001d6:	84 c0                	test   %al,%al
  1001d8:	74 25                	je     1001ff <put_hex+0xbf>
  1001da:	8d 59 01             	lea    0x1(%ecx),%ebx
  1001dd:	8d 76 00             	lea    0x0(%esi),%esi
  1001e0:	ba fd 03 00 00       	mov    $0x3fd,%edx
  1001e5:	ec                   	in     (%dx),%al
  1001e6:	a8 20                	test   $0x20,%al
  1001e8:	74 f6                	je     1001e0 <put_hex+0xa0>
  1001ea:	89 f0                	mov    %esi,%eax
  1001ec:	ba f8 03 00 00       	mov    $0x3f8,%edx
  1001f1:	ee                   	out    %al,(%dx)
  1001f2:	0f b6 73 01          	movzbl 0x1(%ebx),%esi
  1001f6:	83 c3 01             	add    $0x1,%ebx
  1001f9:	89 f0                	mov    %esi,%eax
  1001fb:	84 c0                	test   %al,%al
  1001fd:	75 e1                	jne    1001e0 <put_hex+0xa0>
  1001ff:	83 c4 10             	add    $0x10,%esp
  100202:	5b                   	pop    %ebx
  100203:	5e                   	pop    %esi
  100204:	5f                   	pop    %edi
  100205:	c3                   	ret
  100206:	ba fd 03 00 00       	mov    $0x3fd,%edx
  10020b:	2e 8d 74 26 00       	lea    %cs:0x0(%esi,%eiz,1),%esi
  100210:	ec                   	in     (%dx),%al
  100211:	a8 20                	test   $0x20,%al
  100213:	74 fb                	je     100210 <put_hex+0xd0>
  100215:	b8 30 00 00 00       	mov    $0x30,%eax
  10021a:	ba f8 03 00 00       	mov    $0x3f8,%edx
  10021f:	ee                   	out    %al,(%dx)
  100220:	83 c4 10             	add    $0x10,%esp
  100223:	5b                   	pop    %ebx
  100224:	5e                   	pop    %esi
  100225:	5f                   	pop    %edi
  100226:	c3                   	ret
  100227:	8d 5c 24 0e          	lea    0xe(%esp),%ebx
  10022b:	31 f6                	xor    %esi,%esi
  10022d:	89 d9                	mov    %ebx,%ecx
  10022f:	e9 62 ff ff ff       	jmp    100196 <put_hex+0x56>
  100234:	2e 8d b4 26 00 00 00 	lea    %cs:0x0(%esi,%eiz,1),%esi
  10023b:	00 
  10023c:	8d 74 26 00          	lea    0x0(%esi,%eiz,1),%esi

00100240 <page_fault_handler>:
  100240:	e8 b7 00 00 00       	call   1002fc <__x86.get_pc_thunk.ax>
  100245:	05 f7 03 00 00       	add    $0x3f7,%eax
  10024a:	55                   	push   %ebp
  10024b:	57                   	push   %edi
  10024c:	56                   	push   %esi
  10024d:	be 0a 00 00 00       	mov    $0xa,%esi
  100252:	53                   	push   %ebx
  100253:	8d a8 f3 fc ff ff    	lea    -0x30d(%eax),%ebp
  100259:	8d 98 e7 fc ff ff    	lea    -0x319(%eax),%ebx
  10025f:	90                   	nop
  100260:	ba fd 03 00 00       	mov    $0x3fd,%edx
  100265:	ec                   	in     (%dx),%al
  100266:	a8 20                	test   $0x20,%al
  100268:	74 f6                	je     100260 <page_fault_handler+0x20>
  10026a:	89 f0                	mov    %esi,%eax
  10026c:	ba f8 03 00 00       	mov    $0x3f8,%edx
  100271:	ee                   	out    %al,(%dx)
  100272:	83 c3 01             	add    $0x1,%ebx
  100275:	0f b6 33             	movzbl (%ebx),%esi
  100278:	39 eb                	cmp    %ebp,%ebx
  10027a:	75 e4                	jne    100260 <page_fault_handler+0x20>
  10027c:	eb fe                	jmp    10027c <page_fault_handler+0x3c>
  10027e:	66 90                	xchg   %ax,%ax

00100280 <init_idt>:
  100280:	e8 77 00 00 00       	call   1002fc <__x86.get_pc_thunk.ax>
  100285:	05 b7 03 00 00       	add    $0x3b7,%eax
  10028a:	c7 80 36 0a 01 00 08 	movl   $0x8f000008,0x10a36(%eax)
  100291:	00 00 8f 
  100294:	c7 c2 16 00 10 00    	mov    $0x100016,%edx
  10029a:	66 89 90 34 0a 01 00 	mov    %dx,0x10a34(%eax)
  1002a1:	c1 ea 10             	shr    $0x10,%edx
  1002a4:	66 89 90 3a 0a 01 00 	mov    %dx,0x10a3a(%eax)
  1002ab:	0f 01 98 f8 ff ff ff 	lidtl  -0x8(%eax)
  1002b2:	c3                   	ret
  1002b3:	66 90                	xchg   %ax,%ax
  1002b5:	66 90                	xchg   %ax,%ax
  1002b7:	66 90                	xchg   %ax,%ax
  1002b9:	66 90                	xchg   %ax,%ax
  1002bb:	66 90                	xchg   %ax,%ax
  1002bd:	66 90                	xchg   %ax,%ax
  1002bf:	90                   	nop

001002c0 <main>:
  1002c0:	8d 4c 24 04          	lea    0x4(%esp),%ecx
  1002c4:	83 e4 f0             	and    $0xfffffff0,%esp
  1002c7:	ff 71 fc             	push   -0x4(%ecx)
  1002ca:	55                   	push   %ebp
  1002cb:	89 e5                	mov    %esp,%ebp
  1002cd:	53                   	push   %ebx
  1002ce:	e8 25 00 00 00       	call   1002f8 <__x86.get_pc_thunk.bx>
  1002d3:	81 c3 69 03 00 00    	add    $0x369,%ebx
  1002d9:	51                   	push   %ecx
  1002da:	83 ec 0c             	sub    $0xc,%esp
  1002dd:	8d 83 c8 fc ff ff    	lea    -0x338(%ebx),%eax
  1002e3:	50                   	push   %eax
  1002e4:	e8 17 fe ff ff       	call   100100 <puts>
  1002e9:	83 c4 10             	add    $0x10,%esp
  1002ec:	8d 65 f8             	lea    -0x8(%ebp),%esp
  1002ef:	31 c0                	xor    %eax,%eax
  1002f1:	59                   	pop    %ecx
  1002f2:	5b                   	pop    %ebx
  1002f3:	5d                   	pop    %ebp
  1002f4:	8d 61 fc             	lea    -0x4(%ecx),%esp
  1002f7:	c3                   	ret

001002f8 <__x86.get_pc_thunk.bx>:
  1002f8:	8b 1c 24             	mov    (%esp),%ebx
  1002fb:	c3                   	ret

001002fc <__x86.get_pc_thunk.ax>:
  1002fc:	8b 04 24             	mov    (%esp),%eax
  1002ff:	c3                   	ret

00100300 <__x86.get_pc_thunk.dx>:
  100300:	8b 14 24             	mov    (%esp),%edx
  100303:	c3                   	ret
