
./main_o:     file format elf64-x86-64


Disassembly of section .init:

0000000000001000 <_init>:
    1000:	f3 0f 1e fa          	endbr64
    1004:	48 83 ec 08          	sub    $0x8,%rsp
    1008:	48 8b 05 c1 2f 00 00 	mov    0x2fc1(%rip),%rax        # 3fd0 <__gmon_start__@Base>
    100f:	48 85 c0             	test   %rax,%rax
    1012:	74 02                	je     1016 <_init+0x16>
    1014:	ff d0                	call   *%rax
    1016:	48 83 c4 08          	add    $0x8,%rsp
    101a:	c3                   	ret

Disassembly of section .plt:

0000000000001020 <__stack_chk_fail@plt-0x10>:
    1020:	ff 35 ca 2f 00 00    	push   0x2fca(%rip)        # 3ff0 <_GLOBAL_OFFSET_TABLE_+0x8>
    1026:	ff 25 cc 2f 00 00    	jmp    *0x2fcc(%rip)        # 3ff8 <_GLOBAL_OFFSET_TABLE_+0x10>
    102c:	0f 1f 40 00          	nopl   0x0(%rax)

0000000000001030 <__stack_chk_fail@plt>:
    1030:	ff 25 ca 2f 00 00    	jmp    *0x2fca(%rip)        # 4000 <__stack_chk_fail@GLIBC_2.4>
    1036:	68 00 00 00 00       	push   $0x0
    103b:	e9 e0 ff ff ff       	jmp    1020 <_init+0x20>

0000000000001040 <printf@plt>:
    1040:	ff 25 c2 2f 00 00    	jmp    *0x2fc2(%rip)        # 4008 <printf@GLIBC_2.2.5>
    1046:	68 01 00 00 00       	push   $0x1
    104b:	e9 d0 ff ff ff       	jmp    1020 <_init+0x20>

0000000000001050 <pthread_create@plt>:
    1050:	ff 25 ba 2f 00 00    	jmp    *0x2fba(%rip)        # 4010 <pthread_create@GLIBC_2.34>
    1056:	68 02 00 00 00       	push   $0x2
    105b:	e9 c0 ff ff ff       	jmp    1020 <_init+0x20>

0000000000001060 <pthread_join@plt>:
    1060:	ff 25 b2 2f 00 00    	jmp    *0x2fb2(%rip)        # 4018 <pthread_join@GLIBC_2.34>
    1066:	68 03 00 00 00       	push   $0x3
    106b:	e9 b0 ff ff ff       	jmp    1020 <_init+0x20>

Disassembly of section .text:

0000000000001070 <main>:
    1070:	48 83 ec 28          	sub    $0x28,%rsp
    1074:	31 c9                	xor    %ecx,%ecx
    1076:	48 8d 15 83 01 00 00 	lea    0x183(%rip),%rdx        # 1200 <thread>
    107d:	31 f6                	xor    %esi,%esi
    107f:	64 48 8b 3c 25 28 00 	mov    %fs:0x28,%rdi
    1086:	00 00 
    1088:	48 89 7c 24 18       	mov    %rdi,0x18(%rsp)
    108d:	48 8d 7c 24 08       	lea    0x8(%rsp),%rdi
    1092:	e8 b9 ff ff ff       	call   1050 <pthread_create@plt>
    1097:	31 c9                	xor    %ecx,%ecx
    1099:	48 8d 15 60 01 00 00 	lea    0x160(%rip),%rdx        # 1200 <thread>
    10a0:	31 f6                	xor    %esi,%esi
    10a2:	48 8d 7c 24 10       	lea    0x10(%rsp),%rdi
    10a7:	e8 a4 ff ff ff       	call   1050 <pthread_create@plt>
    10ac:	48 8b 7c 24 08       	mov    0x8(%rsp),%rdi
    10b1:	31 f6                	xor    %esi,%esi
    10b3:	e8 a8 ff ff ff       	call   1060 <pthread_join@plt>
    10b8:	48 8b 7c 24 10       	mov    0x10(%rsp),%rdi
    10bd:	31 f6                	xor    %esi,%esi
    10bf:	e8 9c ff ff ff       	call   1060 <pthread_join@plt>
    10c4:	48 8b 35 6d 2f 00 00 	mov    0x2f6d(%rip),%rsi        # 4038 <valor>
    10cb:	31 c0                	xor    %eax,%eax
    10cd:	48 8d 3d 30 0f 00 00 	lea    0xf30(%rip),%rdi        # 2004 <_IO_stdin_used+0x4>
    10d4:	e8 67 ff ff ff       	call   1040 <printf@plt>
    10d9:	48 8b 44 24 18       	mov    0x18(%rsp),%rax
    10de:	64 48 2b 04 25 28 00 	sub    %fs:0x28,%rax
    10e5:	00 00 
    10e7:	75 07                	jne    10f0 <main+0x80>
    10e9:	31 c0                	xor    %eax,%eax
    10eb:	48 83 c4 28          	add    $0x28,%rsp
    10ef:	c3                   	ret
    10f0:	e8 3b ff ff ff       	call   1030 <__stack_chk_fail@plt>
    10f5:	66 2e 0f 1f 84 00 00 	cs nopw 0x0(%rax,%rax,1)
    10fc:	00 00 00 
    10ff:	90                   	nop

0000000000001100 <_start>:
    1100:	f3 0f 1e fa          	endbr64
    1104:	31 ed                	xor    %ebp,%ebp
    1106:	49 89 d1             	mov    %rdx,%r9
    1109:	5e                   	pop    %rsi
    110a:	48 89 e2             	mov    %rsp,%rdx
    110d:	48 83 e4 f0          	and    $0xfffffffffffffff0,%rsp
    1111:	50                   	push   %rax
    1112:	54                   	push   %rsp
    1113:	45 31 c0             	xor    %r8d,%r8d
    1116:	31 c9                	xor    %ecx,%ecx
    1118:	48 8d 3d 51 ff ff ff 	lea    -0xaf(%rip),%rdi        # 1070 <main>
    111f:	ff 15 9b 2e 00 00    	call   *0x2e9b(%rip)        # 3fc0 <__libc_start_main@GLIBC_2.34>
    1125:	f4                   	hlt
    1126:	66 2e 0f 1f 84 00 00 	cs nopw 0x0(%rax,%rax,1)
    112d:	00 00 00 
    1130:	48 8d 3d f9 2e 00 00 	lea    0x2ef9(%rip),%rdi        # 4030 <__TMC_END__>
    1137:	48 8d 05 f2 2e 00 00 	lea    0x2ef2(%rip),%rax        # 4030 <__TMC_END__>
    113e:	48 39 f8             	cmp    %rdi,%rax
    1141:	74 15                	je     1158 <_start+0x58>
    1143:	48 8b 05 7e 2e 00 00 	mov    0x2e7e(%rip),%rax        # 3fc8 <_ITM_deregisterTMCloneTable@Base>
    114a:	48 85 c0             	test   %rax,%rax
    114d:	74 09                	je     1158 <_start+0x58>
    114f:	ff e0                	jmp    *%rax
    1151:	0f 1f 80 00 00 00 00 	nopl   0x0(%rax)
    1158:	c3                   	ret
    1159:	0f 1f 80 00 00 00 00 	nopl   0x0(%rax)
    1160:	48 8d 3d c9 2e 00 00 	lea    0x2ec9(%rip),%rdi        # 4030 <__TMC_END__>
    1167:	48 8d 35 c2 2e 00 00 	lea    0x2ec2(%rip),%rsi        # 4030 <__TMC_END__>
    116e:	48 29 fe             	sub    %rdi,%rsi
    1171:	48 89 f0             	mov    %rsi,%rax
    1174:	48 c1 ee 3f          	shr    $0x3f,%rsi
    1178:	48 c1 f8 03          	sar    $0x3,%rax
    117c:	48 01 c6             	add    %rax,%rsi
    117f:	48 d1 fe             	sar    $1,%rsi
    1182:	74 14                	je     1198 <_start+0x98>
    1184:	48 8b 05 4d 2e 00 00 	mov    0x2e4d(%rip),%rax        # 3fd8 <_ITM_registerTMCloneTable@Base>
    118b:	48 85 c0             	test   %rax,%rax
    118e:	74 08                	je     1198 <_start+0x98>
    1190:	ff e0                	jmp    *%rax
    1192:	66 0f 1f 44 00 00    	nopw   0x0(%rax,%rax,1)
    1198:	c3                   	ret
    1199:	0f 1f 80 00 00 00 00 	nopl   0x0(%rax)
    11a0:	f3 0f 1e fa          	endbr64
    11a4:	80 3d 85 2e 00 00 00 	cmpb   $0x0,0x2e85(%rip)        # 4030 <__TMC_END__>
    11ab:	75 33                	jne    11e0 <_start+0xe0>
    11ad:	55                   	push   %rbp
    11ae:	48 83 3d 2a 2e 00 00 	cmpq   $0x0,0x2e2a(%rip)        # 3fe0 <__cxa_finalize@GLIBC_2.2.5>
    11b5:	00 
    11b6:	48 89 e5             	mov    %rsp,%rbp
    11b9:	74 0d                	je     11c8 <_start+0xc8>
    11bb:	48 8b 3d 66 2e 00 00 	mov    0x2e66(%rip),%rdi        # 4028 <__dso_handle>
    11c2:	ff 15 18 2e 00 00    	call   *0x2e18(%rip)        # 3fe0 <__cxa_finalize@GLIBC_2.2.5>
    11c8:	e8 63 ff ff ff       	call   1130 <_start+0x30>
    11cd:	c6 05 5c 2e 00 00 01 	movb   $0x1,0x2e5c(%rip)        # 4030 <__TMC_END__>
    11d4:	5d                   	pop    %rbp
    11d5:	c3                   	ret
    11d6:	66 2e 0f 1f 84 00 00 	cs nopw 0x0(%rax,%rax,1)
    11dd:	00 00 00 
    11e0:	c3                   	ret
    11e1:	66 66 2e 0f 1f 84 00 	data16 cs nopw 0x0(%rax,%rax,1)
    11e8:	00 00 00 00 
    11ec:	0f 1f 40 00          	nopl   0x0(%rax)
    11f0:	f3 0f 1e fa          	endbr64
    11f4:	e9 67 ff ff ff       	jmp    1160 <_start+0x60>
    11f9:	0f 1f 80 00 00 00 00 	nopl   0x0(%rax)

0000000000001200 <thread>:
    1200:	48 81 05 2d 2e 00 00 	addq   $0xf4240,0x2e2d(%rip)        # 4038 <valor>
    1207:	40 42 0f 00 
    120b:	31 c0                	xor    %eax,%eax
    120d:	c3                   	ret

Disassembly of section .fini:

0000000000001210 <_fini>:
    1210:	f3 0f 1e fa          	endbr64
    1214:	48 83 ec 08          	sub    $0x8,%rsp
    1218:	48 83 c4 08          	add    $0x8,%rsp
    121c:	c3                   	ret
