
./main_mutex:     file format elf64-x86-64


Disassembly of section .init:

0000000000001000 <_init>:
    1000:	f3 0f 1e fa          	endbr64
    1004:	48 83 ec 08          	sub    $0x8,%rsp
    1008:	48 8b 05 c1 2f 00 00 	mov    0x2fc1(%rip),%rax        # 3fd0 <__gmon_start__@Base>
    100f:	48 85 c0             	test   %rax,%rax
    1012:	74 02                	je     1016 <_init+0x16>
    1014:	ff d0                	call   *%rax
    1016:	48 83 c4 08          	add    $0x8,%rsp
    101a:	c3                   	ret

Disassembly of section .plt:

0000000000001020 <__stack_chk_fail@plt-0x10>:
    1020:	ff 35 ca 2f 00 00    	push   0x2fca(%rip)        # 3ff0 <_GLOBAL_OFFSET_TABLE_+0x8>
    1026:	ff 25 cc 2f 00 00    	jmp    *0x2fcc(%rip)        # 3ff8 <_GLOBAL_OFFSET_TABLE_+0x10>
    102c:	0f 1f 40 00          	nopl   0x0(%rax)

0000000000001030 <__stack_chk_fail@plt>:
    1030:	ff 25 ca 2f 00 00    	jmp    *0x2fca(%rip)        # 4000 <__stack_chk_fail@GLIBC_2.4>
    1036:	68 00 00 00 00       	push   $0x0
    103b:	e9 e0 ff ff ff       	jmp    1020 <_init+0x20>

0000000000001040 <printf@plt>:
    1040:	ff 25 c2 2f 00 00    	jmp    *0x2fc2(%rip)        # 4008 <printf@GLIBC_2.2.5>
    1046:	68 01 00 00 00       	push   $0x1
    104b:	e9 d0 ff ff ff       	jmp    1020 <_init+0x20>

0000000000001050 <pthread_mutex_unlock@plt>:
    1050:	ff 25 ba 2f 00 00    	jmp    *0x2fba(%rip)        # 4010 <pthread_mutex_unlock@GLIBC_2.2.5>
    1056:	68 02 00 00 00       	push   $0x2
    105b:	e9 c0 ff ff ff       	jmp    1020 <_init+0x20>

0000000000001060 <pthread_create@plt>:
    1060:	ff 25 b2 2f 00 00    	jmp    *0x2fb2(%rip)        # 4018 <pthread_create@GLIBC_2.34>
    1066:	68 03 00 00 00       	push   $0x3
    106b:	e9 b0 ff ff ff       	jmp    1020 <_init+0x20>

0000000000001070 <pthread_join@plt>:
    1070:	ff 25 aa 2f 00 00    	jmp    *0x2faa(%rip)        # 4020 <pthread_join@GLIBC_2.34>
    1076:	68 04 00 00 00       	push   $0x4
    107b:	e9 a0 ff ff ff       	jmp    1020 <_init+0x20>

0000000000001080 <pthread_mutex_lock@plt>:
    1080:	ff 25 a2 2f 00 00    	jmp    *0x2fa2(%rip)        # 4028 <pthread_mutex_lock@GLIBC_2.2.5>
    1086:	68 05 00 00 00       	push   $0x5
    108b:	e9 90 ff ff ff       	jmp    1020 <_init+0x20>

Disassembly of section .text:

0000000000001090 <_start>:
    1090:	f3 0f 1e fa          	endbr64
    1094:	31 ed                	xor    %ebp,%ebp
    1096:	49 89 d1             	mov    %rdx,%r9
    1099:	5e                   	pop    %rsi
    109a:	48 89 e2             	mov    %rsp,%rdx
    109d:	48 83 e4 f0          	and    $0xfffffffffffffff0,%rsp
    10a1:	50                   	push   %rax
    10a2:	54                   	push   %rsp
    10a3:	45 31 c0             	xor    %r8d,%r8d
    10a6:	31 c9                	xor    %ecx,%ecx
    10a8:	48 8d 3d 38 01 00 00 	lea    0x138(%rip),%rdi        # 11e7 <main>
    10af:	ff 15 0b 2f 00 00    	call   *0x2f0b(%rip)        # 3fc0 <__libc_start_main@GLIBC_2.34>
    10b5:	f4                   	hlt
    10b6:	66 2e 0f 1f 84 00 00 	cs nopw 0x0(%rax,%rax,1)
    10bd:	00 00 00 
    10c0:	48 8d 3d 79 2f 00 00 	lea    0x2f79(%rip),%rdi        # 4040 <__TMC_END__>
    10c7:	48 8d 05 72 2f 00 00 	lea    0x2f72(%rip),%rax        # 4040 <__TMC_END__>
    10ce:	48 39 f8             	cmp    %rdi,%rax
    10d1:	74 15                	je     10e8 <_start+0x58>
    10d3:	48 8b 05 ee 2e 00 00 	mov    0x2eee(%rip),%rax        # 3fc8 <_ITM_deregisterTMCloneTable@Base>
    10da:	48 85 c0             	test   %rax,%rax
    10dd:	74 09                	je     10e8 <_start+0x58>
    10df:	ff e0                	jmp    *%rax
    10e1:	0f 1f 80 00 00 00 00 	nopl   0x0(%rax)
    10e8:	c3                   	ret
    10e9:	0f 1f 80 00 00 00 00 	nopl   0x0(%rax)
    10f0:	48 8d 3d 49 2f 00 00 	lea    0x2f49(%rip),%rdi        # 4040 <__TMC_END__>
    10f7:	48 8d 35 42 2f 00 00 	lea    0x2f42(%rip),%rsi        # 4040 <__TMC_END__>
    10fe:	48 29 fe             	sub    %rdi,%rsi
    1101:	48 89 f0             	mov    %rsi,%rax
    1104:	48 c1 ee 3f          	shr    $0x3f,%rsi
    1108:	48 c1 f8 03          	sar    $0x3,%rax
    110c:	48 01 c6             	add    %rax,%rsi
    110f:	48 d1 fe             	sar    $1,%rsi
    1112:	74 14                	je     1128 <_start+0x98>
    1114:	48 8b 05 bd 2e 00 00 	mov    0x2ebd(%rip),%rax        # 3fd8 <_ITM_registerTMCloneTable@Base>
    111b:	48 85 c0             	test   %rax,%rax
    111e:	74 08                	je     1128 <_start+0x98>
    1120:	ff e0                	jmp    *%rax
    1122:	66 0f 1f 44 00 00    	nopw   0x0(%rax,%rax,1)
    1128:	c3                   	ret
    1129:	0f 1f 80 00 00 00 00 	nopl   0x0(%rax)
    1130:	f3 0f 1e fa          	endbr64
    1134:	80 3d 05 2f 00 00 00 	cmpb   $0x0,0x2f05(%rip)        # 4040 <__TMC_END__>
    113b:	75 33                	jne    1170 <_start+0xe0>
    113d:	55                   	push   %rbp
    113e:	48 83 3d 9a 2e 00 00 	cmpq   $0x0,0x2e9a(%rip)        # 3fe0 <__cxa_finalize@GLIBC_2.2.5>
    1145:	00 
    1146:	48 89 e5             	mov    %rsp,%rbp
    1149:	74 0d                	je     1158 <_start+0xc8>
    114b:	48 8b 3d e6 2e 00 00 	mov    0x2ee6(%rip),%rdi        # 4038 <__dso_handle>
    1152:	ff 15 88 2e 00 00    	call   *0x2e88(%rip)        # 3fe0 <__cxa_finalize@GLIBC_2.2.5>
    1158:	e8 63 ff ff ff       	call   10c0 <_start+0x30>
    115d:	c6 05 dc 2e 00 00 01 	movb   $0x1,0x2edc(%rip)        # 4040 <__TMC_END__>
    1164:	5d                   	pop    %rbp
    1165:	c3                   	ret
    1166:	66 2e 0f 1f 84 00 00 	cs nopw 0x0(%rax,%rax,1)
    116d:	00 00 00 
    1170:	c3                   	ret
    1171:	66 66 2e 0f 1f 84 00 	data16 cs nopw 0x0(%rax,%rax,1)
    1178:	00 00 00 00 
    117c:	0f 1f 40 00          	nopl   0x0(%rax)
    1180:	f3 0f 1e fa          	endbr64
    1184:	e9 67 ff ff ff       	jmp    10f0 <_start+0x60>

0000000000001189 <thread>:
    1189:	55                   	push   %rbp
    118a:	48 89 e5             	mov    %rsp,%rbp
    118d:	48 83 ec 20          	sub    $0x20,%rsp
    1191:	48 89 7d e8          	mov    %rdi,-0x18(%rbp)
    1195:	48 c7 45 f8 40 42 0f 	movq   $0xf4240,-0x8(%rbp)
    119c:	00 
    119d:	eb 30                	jmp    11cf <thread+0x46>
    119f:	48 8d 05 da 2e 00 00 	lea    0x2eda(%rip),%rax        # 4080 <mutex>
    11a6:	48 89 c7             	mov    %rax,%rdi
    11a9:	e8 d2 fe ff ff       	call   1080 <pthread_mutex_lock@plt>
    11ae:	48 8b 05 ab 2e 00 00 	mov    0x2eab(%rip),%rax        # 4060 <valor>
    11b5:	48 83 c0 01          	add    $0x1,%rax
    11b9:	48 89 05 a0 2e 00 00 	mov    %rax,0x2ea0(%rip)        # 4060 <valor>
    11c0:	48 8d 05 b9 2e 00 00 	lea    0x2eb9(%rip),%rax        # 4080 <mutex>
    11c7:	48 89 c7             	mov    %rax,%rdi
    11ca:	e8 81 fe ff ff       	call   1050 <pthread_mutex_unlock@plt>
    11cf:	48 8b 45 f8          	mov    -0x8(%rbp),%rax
    11d3:	48 8d 50 ff          	lea    -0x1(%rax),%rdx
    11d7:	48 89 55 f8          	mov    %rdx,-0x8(%rbp)
    11db:	48 85 c0             	test   %rax,%rax
    11de:	75 bf                	jne    119f <thread+0x16>
    11e0:	b8 00 00 00 00       	mov    $0x0,%eax
    11e5:	c9                   	leave
    11e6:	c3                   	ret

00000000000011e7 <main>:
    11e7:	55                   	push   %rbp
    11e8:	48 89 e5             	mov    %rsp,%rbp
    11eb:	48 83 ec 20          	sub    $0x20,%rsp
    11ef:	64 48 8b 04 25 28 00 	mov    %fs:0x28,%rax
    11f6:	00 00 
    11f8:	48 89 45 f8          	mov    %rax,-0x8(%rbp)
    11fc:	31 c0                	xor    %eax,%eax
    11fe:	48 8d 15 84 ff ff ff 	lea    -0x7c(%rip),%rdx        # 1189 <thread>
    1205:	48 8d 45 e8          	lea    -0x18(%rbp),%rax
    1209:	b9 00 00 00 00       	mov    $0x0,%ecx
    120e:	be 00 00 00 00       	mov    $0x0,%esi
    1213:	48 89 c7             	mov    %rax,%rdi
    1216:	e8 45 fe ff ff       	call   1060 <pthread_create@plt>
    121b:	48 8d 15 67 ff ff ff 	lea    -0x99(%rip),%rdx        # 1189 <thread>
    1222:	48 8d 45 f0          	lea    -0x10(%rbp),%rax
    1226:	b9 00 00 00 00       	mov    $0x0,%ecx
    122b:	be 00 00 00 00       	mov    $0x0,%esi
    1230:	48 89 c7             	mov    %rax,%rdi
    1233:	e8 28 fe ff ff       	call   1060 <pthread_create@plt>
    1238:	48 8b 45 e8          	mov    -0x18(%rbp),%rax
    123c:	be 00 00 00 00       	mov    $0x0,%esi
    1241:	48 89 c7             	mov    %rax,%rdi
    1244:	e8 27 fe ff ff       	call   1070 <pthread_join@plt>
    1249:	48 8b 45 f0          	mov    -0x10(%rbp),%rax
    124d:	be 00 00 00 00       	mov    $0x0,%esi
    1252:	48 89 c7             	mov    %rax,%rdi
    1255:	e8 16 fe ff ff       	call   1070 <pthread_join@plt>
    125a:	48 8b 05 ff 2d 00 00 	mov    0x2dff(%rip),%rax        # 4060 <valor>
    1261:	48 8d 15 9c 0d 00 00 	lea    0xd9c(%rip),%rdx        # 2004 <_IO_stdin_used+0x4>
    1268:	48 89 c6             	mov    %rax,%rsi
    126b:	48 89 d7             	mov    %rdx,%rdi
    126e:	b8 00 00 00 00       	mov    $0x0,%eax
    1273:	e8 c8 fd ff ff       	call   1040 <printf@plt>
    1278:	b8 00 00 00 00       	mov    $0x0,%eax
    127d:	48 8b 55 f8          	mov    -0x8(%rbp),%rdx
    1281:	64 48 2b 14 25 28 00 	sub    %fs:0x28,%rdx
    1288:	00 00 
    128a:	74 05                	je     1291 <main+0xaa>
    128c:	e8 9f fd ff ff       	call   1030 <__stack_chk_fail@plt>
    1291:	c9                   	leave
    1292:	c3                   	ret

Disassembly of section .fini:

0000000000001294 <_fini>:
    1294:	f3 0f 1e fa          	endbr64
    1298:	48 83 ec 08          	sub    $0x8,%rsp
    129c:	48 83 c4 08          	add    $0x8,%rsp
    12a0:	c3                   	ret
